
/mnt/f/repo/RISCV-Vector-Processor/testspace/test.om:     file format elf64-littleriscv


Disassembly of section .rom:

0000000000000000 <.rom>:
   0:	00020137          	lui	sp,0x20
   4:	7fd000ef          	jal	ra,1000 <main>
   8:	0ff00513          	li	a0,255
   c:	000306b7          	lui	a3,0x30
  10:	00a68223          	sb	a0,4(a3) # 30004 <__heap_start+0x2e004>
  14:	ff9ff06f          	j	c <main-0xff4>

Disassembly of section .text:

0000000000001000 <main>:
    1000:	fe010113          	addi	sp,sp,-32 # 1ffe0 <__heap_start+0x1dfe0> r2 
    1004:	00813c23          	sd	s0,24(sp)   # r8
    1008:	02010413          	addi	s0,sp,32
    100c:	c22022f3          	csrr	t0,vlenb  # r5
    1010:	00028313          	mv	t1,t0       # r6
    1014:	40610133          	sub	sp,sp,t1
    1018:	00400793          	li	a5,4
    101c:	fef43423          	sd	a5,-24(s0)
    1020:	c22027f3          	csrr	a5,vlenb
    1024:	40f007b3          	neg	a5,a5
    1028:	ff078793          	addi	a5,a5,-16
    102c:	ff078793          	addi	a5,a5,-16
    1030:	008787b3          	add	a5,a5,s0
    1034:	00010737          	lui	a4,0x10
    1038:	00170713          	addi	a4,a4,1 # 10001 <__heap_start+0xe001>
    103c:	00e7a023          	sw	a4,0(a5)
    1040:	c22027f3          	csrr	a5,vlenb
    1044:	40f007b3          	neg	a5,a5
    1048:	ff878793          	addi	a5,a5,-8
    104c:	ff078793          	addi	a5,a5,-16
    1050:	00878733          	add	a4,a5,s0
    1054:	c22027f3          	csrr	a5,vlenb
    1058:	40f007b3          	neg	a5,a5
    105c:	ff078793          	addi	a5,a5,-16
    1060:	ff078793          	addi	a5,a5,-16
    1064:	00878633          	add	a2,a5,s0
    1068:	fe843783          	ld	a5,-24(s0)                  # load/store mask会压缩8bits为1bits 容许8个register被归为一组
    106c:	0467f057          	vsetvli	zero,a5,e8,mf4,ta,mu    # set config  8位数，不带mask，4groups 每组8个
    1070:	02b60c07          	vlm.v	v24,(a2)    # transfer mask from memory to v24(mask transfered to one register regardless of lmul)
    1074:	046077d7          	vsetvli	a5,zero,e8,mf4,ta,mu
    1078:	02b70c27          	vsm.v	v24,(a4)    # transfer mask from v24 to memory (r14)
    107c:	00000793          	li	a5,0
    1080:	00078513          	mv	a0,a5
    1084:	c22022f3          	csrr	t0,vlenb
    1088:	00028313          	mv	t1,t0
    108c:	00610133          	add	sp,sp,t1
    1090:	01813403          	ld	s0,24(sp)
    1094:	02010113          	addi	sp,sp,32
    1098:	00008067          	ret
