
/mnt/f/repo/RISCV-Vector-Processor/testspace/test.om:     file format elf64-littleriscv


Disassembly of section .rom:

0000000000000000 <.rom>:
   0:	00020137          	lui	sp,0x20
   4:	070010ef          	jal	ra,1074 <main>
   8:	0ff00513          	li	a0,255
   c:	000306b7          	lui	a3,0x30
  10:	00a68223          	sb	a0,4(a3) # 30004 <__heap_start+0x2e004>
  14:	ff9ff06f          	j	c <vec_add_rvv-0xff4>

Disassembly of section .text:

0000000000001000 <vec_add_rvv>:
    1000:	fc010113          	addi	sp,sp,-64 # 1ffc0 <__heap_start+0x1dfc0>
    1004:	02813c23          	sd	s0,56(sp)
    1008:	04010413          	addi	s0,sp,64
    100c:	fea43423          	sd	a0,-24(s0)
    1010:	feb43023          	sd	a1,-32(s0)
    1014:	fcc43c23          	sd	a2,-40(s0)
    1018:	fcd43823          	sd	a3,-48(s0)
    101c:	fce43423          	sd	a4,-56(s0)
    1020:	fcf43023          	sd	a5,-64(s0)
    1024:	fe843783          	ld	a5,-24(s0)
    1028:	04607757          	vsetvli	a4,zero,e8,mf4,ta,mu
    102c:	02b78c07          	vlm.v	v24,(a5)
    1030:	fe043783          	ld	a5,-32(s0)
    1034:	0287ed87          	vl1re32.v	v27,(a5)
    1038:	fd843783          	ld	a5,-40(s0)
    103c:	0287ed07          	vl1re32.v	v26,(a5)
    1040:	fd043783          	ld	a5,-48(s0)
    1044:	0287ec87          	vl1re32.v	v25,(a5)
    1048:	fc043783          	ld	a5,-64(s0)
    104c:	0107f057          	vsetvli	zero,a5,e32,m1,tu,mu
    1050:	9f803057          	vmv1r.v	v0,v24
    1054:	01ac8dd7          	vadd.vv	v27,v26,v25,v0.t
    1058:	9fb03c57          	vmv1r.v	v24,v27
    105c:	fc843783          	ld	a5,-56(s0)
    1060:	02878c27          	vs1r.v	v24,(a5)
    1064:	00000013          	nop
    1068:	03813403          	ld	s0,56(sp)
    106c:	04010113          	addi	sp,sp,64
    1070:	00008067          	ret

0000000000001074 <main>:
    1074:	fb010113          	addi	sp,sp,-80
    1078:	04113423          	sd	ra,72(sp)
    107c:	04813023          	sd	s0,64(sp)
    1080:	05010413          	addi	s0,sp,80
    1084:	c22022f3          	csrr	t0,vlenb
    1088:	00229313          	slli	t1,t0,0x2
    108c:	00530333          	add	t1,t1,t0
    1090:	40610133          	sub	sp,sp,t1
    1094:	00400793          	li	a5,4
    1098:	fef43423          	sd	a5,-24(s0)
    109c:	000017b7          	lui	a5,0x1
    10a0:	24878793          	addi	a5,a5,584 # 1248 <main+0x1d4>
    10a4:	0007b703          	ld	a4,0(a5)
    10a8:	fce43c23          	sd	a4,-40(s0)
    10ac:	0087b783          	ld	a5,8(a5)
    10b0:	fef43023          	sd	a5,-32(s0)
    10b4:	000017b7          	lui	a5,0x1
    10b8:	25878793          	addi	a5,a5,600 # 1258 <main+0x1e4>
    10bc:	0007b703          	ld	a4,0(a5)
    10c0:	fce43423          	sd	a4,-56(s0)
    10c4:	0087b783          	ld	a5,8(a5)
    10c8:	fcf43823          	sd	a5,-48(s0)
    10cc:	000017b7          	lui	a5,0x1
    10d0:	26878793          	addi	a5,a5,616 # 1268 <main+0x1f4>
    10d4:	0007b703          	ld	a4,0(a5)
    10d8:	fae43c23          	sd	a4,-72(s0)
    10dc:	0087b783          	ld	a5,8(a5)
    10e0:	fcf43023          	sd	a5,-64(s0)
    10e4:	000107b7          	lui	a5,0x10
    10e8:	00178793          	addi	a5,a5,1 # 10001 <__heap_start+0xe001>
    10ec:	faf42823          	sw	a5,-80(s0)
    10f0:	fd840693          	addi	a3,s0,-40
    10f4:	fe843703          	ld	a4,-24(s0)
    10f8:	05077057          	vsetvli	zero,a4,e32,m1,ta,mu
    10fc:	0206ec07          	vle32.v	v24,(a3)
    1100:	c22027f3          	csrr	a5,vlenb
    1104:	40f007b3          	neg	a5,a5
    1108:	fc078793          	addi	a5,a5,-64
    110c:	ff078793          	addi	a5,a5,-16
    1110:	008787b3          	add	a5,a5,s0
    1114:	02878c27          	vs1r.v	v24,(a5)
    1118:	fc840693          	addi	a3,s0,-56
    111c:	fe843703          	ld	a4,-24(s0)
    1120:	0206ec07          	vle32.v	v24,(a3)
    1124:	c22027f3          	csrr	a5,vlenb
    1128:	40f007b3          	neg	a5,a5
    112c:	00179793          	slli	a5,a5,0x1
    1130:	fc078793          	addi	a5,a5,-64
    1134:	ff078793          	addi	a5,a5,-16
    1138:	008787b3          	add	a5,a5,s0
    113c:	02878c27          	vs1r.v	v24,(a5)
    1140:	fb840693          	addi	a3,s0,-72
    1144:	fe843703          	ld	a4,-24(s0)
    1148:	0206ec07          	vle32.v	v24,(a3)
    114c:	c2202773          	csrr	a4,vlenb
    1150:	00271793          	slli	a5,a4,0x2
    1154:	40f707b3          	sub	a5,a4,a5
    1158:	fc078793          	addi	a5,a5,-64
    115c:	ff078793          	addi	a5,a5,-16
    1160:	008787b3          	add	a5,a5,s0
    1164:	02878c27          	vs1r.v	v24,(a5)
    1168:	fb040693          	addi	a3,s0,-80
    116c:	fe843703          	ld	a4,-24(s0)
    1170:	04677057          	vsetvli	zero,a4,e8,mf4,ta,mu
    1174:	02b68c07          	vlm.v	v24,(a3)
    1178:	c22027f3          	csrr	a5,vlenb
    117c:	40f007b3          	neg	a5,a5
    1180:	00279793          	slli	a5,a5,0x2
    1184:	fc078793          	addi	a5,a5,-64
    1188:	ff078793          	addi	a5,a5,-16
    118c:	00878733          	add	a4,a5,s0
    1190:	046077d7          	vsetvli	a5,zero,e8,mf4,ta,mu
    1194:	02b70c27          	vsm.v	v24,(a4)
    1198:	c2202773          	csrr	a4,vlenb
    119c:	00271793          	slli	a5,a4,0x2
    11a0:	40f007b3          	neg	a5,a5
    11a4:	40e787b3          	sub	a5,a5,a4
    11a8:	fc078793          	addi	a5,a5,-64
    11ac:	ff078793          	addi	a5,a5,-16
    11b0:	00878833          	add	a6,a5,s0
    11b4:	c22027f3          	csrr	a5,vlenb
    11b8:	40f007b3          	neg	a5,a5
    11bc:	00179793          	slli	a5,a5,0x1
    11c0:	fc078793          	addi	a5,a5,-64
    11c4:	ff078793          	addi	a5,a5,-16
    11c8:	008786b3          	add	a3,a5,s0
    11cc:	c22027f3          	csrr	a5,vlenb
    11d0:	40f007b3          	neg	a5,a5
    11d4:	fc078793          	addi	a5,a5,-64
    11d8:	ff078793          	addi	a5,a5,-16
    11dc:	00878633          	add	a2,a5,s0
    11e0:	c2202773          	csrr	a4,vlenb
    11e4:	00271793          	slli	a5,a4,0x2
    11e8:	40f707b3          	sub	a5,a4,a5
    11ec:	fc078793          	addi	a5,a5,-64
    11f0:	ff078793          	addi	a5,a5,-16
    11f4:	008785b3          	add	a1,a5,s0
    11f8:	c22027f3          	csrr	a5,vlenb
    11fc:	40f007b3          	neg	a5,a5
    1200:	00279793          	slli	a5,a5,0x2
    1204:	fc078793          	addi	a5,a5,-64
    1208:	ff078793          	addi	a5,a5,-16
    120c:	00878533          	add	a0,a5,s0
    1210:	fe843783          	ld	a5,-24(s0)
    1214:	00080713          	mv	a4,a6
    1218:	de9ff0ef          	jal	ra,1000 <vec_add_rvv>
    121c:	00000793          	li	a5,0
    1220:	00078513          	mv	a0,a5
    1224:	c22022f3          	csrr	t0,vlenb
    1228:	00229313          	slli	t1,t0,0x2
    122c:	00530333          	add	t1,t1,t0
    1230:	00610133          	add	sp,sp,t1
    1234:	04813083          	ld	ra,72(sp)
    1238:	04013403          	ld	s0,64(sp)
    123c:	05010113          	addi	sp,sp,80
    1240:	00008067          	ret
